target datalayout = "e-m:e-p270:32:32-p271:32:32-p272:64:64-i64:64-i128:128-f80:128-n8:16:32:64-S128"
target triple = "x86_64-pc-linux-gnu"

@proto_register_s5066.ett = internal global [5 x ptr] [ptr @ett_s5066, ptr @ett_s5066_pdu, ptr @ett_s5066_servicetype, ptr @ett_s5066_address, ptr @ett_s5066_client_transport_header], align 16
@.str.145 = private unnamed_addr constant [24 x i8] c"STANAG 5066 (SIS layer)\00", align 1
@.str.146 = private unnamed_addr constant [16 x i8] c"STANAG 5066 SIS\00", align 1
@.str.147 = private unnamed_addr constant [9 x i8] c"s5066sis\00", align 1
@proto_s5066 = internal global i32 0, align 4
@s5066_tcp_handle = internal global ptr null, align 8
@.str.148 = private unnamed_addr constant [15 x i8] c"desegment_pdus\00", align 1
@.str.149 = private unnamed_addr constant [57 x i8] c"Reassemble S5066 SIS PDUs spanning multiple TCP segments\00", align 1
@.str.150 = private unnamed_addr constant [121 x i8] c"Whether the S5066 SIS dissector should reassemble PDUs spanning multiple TCP segments. The default is to use reassembly.\00", align 1
@s5066_desegment = internal global i8 1, align 1
@.str.151 = private unnamed_addr constant [12 x i8] c"edition_one\00", align 1
@.str.152 = private unnamed_addr constant [35 x i8] c"Dissect edition 1.0 of STANAG 5066\00", align 1
@.str.153 = private unnamed_addr constant [169 x i8] c"Whether the S5066 SIS dissector should dissect this edition of the STANAG. This edition was never formally approved and is very rare. The common edition is edition 1.2.\00", align 1
@s5066_edition_one = internal global i8 0, align 1
@.str.154 = private unnamed_addr constant [19 x i8] c"s5066sis.ctl.appid\00", align 1
@.str.155 = private unnamed_addr constant [35 x i8] c"STANAG 5066 Application Identifier\00", align 1
@s5066sis_dissector_table = internal global ptr null, align 8

; Function Attrs: null_pointer_is_valid sspstrong uwtable
define hidden void @proto_register_s5066() #0 {
  %1 = alloca ptr, align 8
  call void @llvm.lifetime.start.p0(i64 8, ptr %1) #4
  %2 = call i32 @proto_register_protocol(ptr noundef @.str.145, ptr noundef @.str.146, ptr noundef @.str.147)
  store i32 %2, ptr @proto_s5066, align 4
  %3 = load i32, ptr @proto_s5066, align 4
  call void @proto_register_field_array(i32 noundef %3, ptr noundef @proto_register_s5066.hf, i32 noundef 103)
  call void @proto_register_subtree_array(ptr noundef @proto_register_s5066.ett, i32 noundef 5)
  %4 = load i32, ptr @proto_s5066, align 4
  %5 = call ptr @register_dissector(ptr noundef @.str.147, ptr noundef @dissect_s5066_tcp, i32 noundef %4)
  store ptr %5, ptr @s5066_tcp_handle, align 8
  %6 = load i32, ptr @proto_s5066, align 4
  %7 = call ptr @prefs_register_protocol(i32 noundef %6, ptr noundef @proto_reg_handoff_s5066)
  store ptr %7, ptr %1, align 8
  %8 = load ptr, ptr %1, align 8
  call void @prefs_register_bool_preference(ptr noundef %8, ptr noundef @.str.148, ptr noundef @.str.149, ptr noundef @.str.150, ptr noundef @s5066_desegment)
  %9 = load ptr, ptr %1, align 8
  call void @prefs_register_bool_preference(ptr noundef %9, ptr noundef @.str.151, ptr noundef @.str.152, ptr noundef @.str.153, ptr noundef @s5066_edition_one)
  %10 = load i32, ptr @proto_s5066, align 4
  %11 = call ptr @register_dissector_table(ptr noundef @.str.154, ptr noundef @.str.155, i32 noundef %10, i32 noundef 5, i32 noundef 1)
  store ptr %11, ptr @s5066sis_dissector_table, align 8
  call void @llvm.lifetime.end.p0(i64 8, ptr %1) #4
  ret void
}