; Function Attrs: null_pointer_is_valid sspstrong uwtable
define hidden void @proto_register_s5066() local_unnamed_addr #0 {
  %1 = tail call i32 @proto_register_protocol(ptr noundef nonnull @.str.145, ptr noundef nonnull @.str.146, ptr noundef nonnull @.str.147)
  store i32 %1, ptr @proto_s5066, align 4
  tail call void @proto_register_field_array(i32 noundef %1, ptr noundef nonnull @proto_register_s5066.hf, i32 noundef 103)
  tail call void @proto_register_subtree_array(ptr noundef nonnull @proto_register_s5066.ett, i32 noundef 5)
  %2 = load i32, ptr @proto_s5066, align 4
  %3 = tail call ptr @register_dissector(ptr noundef nonnull @.str.147, ptr noundef nonnull @dissect_s5066_tcp, i32 noundef %2)
  store ptr %3, ptr @s5066_tcp_handle, align 8
  %4 = load i32, ptr @proto_s5066, align 4
  %5 = tail call ptr @prefs_register_protocol(i32 noundef %4, ptr noundef nonnull @proto_reg_handoff_s5066)
  tail call void @prefs_register_bool_preference(ptr noundef %5, ptr noundef nonnull @.str.148, ptr noundef nonnull @.str.149, ptr noundef nonnull @.str.150, ptr noundef nonnull @s5066_desegment)
  tail call void @prefs_register_bool_preference(ptr noundef %5, ptr noundef nonnull @.str.151, ptr noundef nonnull @.str.152, ptr noundef nonnull @.str.153, ptr noundef nonnull @s5066_edition_one)
  %6 = load i32, ptr @proto_s5066, align 4
  %7 = tail call ptr @register_dissector_table(ptr noundef nonnull @.str.154, ptr noundef nonnull @.str.155, i32 noundef %6, i32 noundef 5, i32 noundef 1)
  store ptr %7, ptr @s5066sis_dissector_table, align 8
  ret void
}